; Function Attrs: nounwind uwtable
define dso_local ptr @PyComplex_FromDoubles(double noundef %0, double noundef %1) local_unnamed_addr #9 {
  %3 = tail call ptr @PyObject_Malloc(i64 noundef 32) #16
  %4 = icmp eq ptr %3, null
  br i1 %4, label %5, label %7

5:                                                ; preds = %2
  %6 = tail call ptr @PyErr_NoMemory() #16
  br label %PyComplex_FromCComplex.exit

7:                                                ; preds = %2
  %8 = getelementptr inbounds nuw i8, ptr %3, i64 8
  store ptr @PyComplex_Type, ptr %8, align 8, !tbaa !8
  %9 = load i32, ptr @PyComplex_Type, align 8, !tbaa !12
  %10 = icmp slt i32 %9, 0
  br i1 %10, label %_PyObject_Init.exit.i, label %11

11:                                               ; preds = %7
  %12 = add nuw i32 %9, 1
  store i32 %12, ptr @PyComplex_Type, align 8, !tbaa !12
  br label %_PyObject_Init.exit.i

_PyObject_Init.exit.i:                            ; preds = %11, %7
  tail call void @_Py_NewReference(ptr noundef nonnull %3) #16
  %13 = getelementptr inbounds nuw i8, ptr %3, i64 16
  store double %0, ptr %13, align 8, !tbaa !13
  %.sroa.2.0..sroa_idx.i = getelementptr inbounds nuw i8, ptr %3, i64 24
  store double %1, ptr %.sroa.2.0..sroa_idx.i, align 8, !tbaa !13
  br label %PyComplex_FromCComplex.exit

PyComplex_FromCComplex.exit:                      ; preds = %5, %_PyObject_Init.exit.i
  %.0.i = phi ptr [ %6, %5 ], [ %3, %_PyObject_Init.exit.i ]
  ret ptr %.0.i
}